; ModuleID = 'source-C-CXX/24/91.cpp'
source_filename = "source-C-CXX/24/91.cpp"
target datalayout = "e-m:e-p270:32:32-p271:32:32-p272:64:64-i64:64-f80:128-n8:16:32:64-S128"
target triple = "x86_64-pc-linux-gnu"

%"class.std::ios_base::Init" = type { i8 }
%"class.std::basic_istream" = type { i32 (...)**, i64, %"class.std::basic_ios" }
%"class.std::basic_ios" = type { %"class.std::ios_base", %"class.std::basic_ostream"*, i8, i8, %"class.std::basic_streambuf"*, %"class.std::ctype"*, %"class.std::num_put"*, %"class.std::num_get"* }
%"class.std::ios_base" = type { i32 (...)**, i64, i64, i32, i32, i32, %"struct.std::ios_base::_Callback_list"*, %"struct.std::ios_base::_Words", [8 x %"struct.std::ios_base::_Words"], i32, %"struct.std::ios_base::_Words"*, %"class.std::locale" }
%"struct.std::ios_base::_Callback_list" = type { %"struct.std::ios_base::_Callback_list"*, void (i32, %"class.std::ios_base"*, i32)*, i32, i32 }
%"struct.std::ios_base::_Words" = type { i8*, i64 }
%"class.std::locale" = type { %"class.std::locale::_Impl"* }
%"class.std::locale::_Impl" = type { i32, %"class.std::locale::facet"**, i64, %"class.std::locale::facet"**, i8** }
%"class.std::locale::facet" = type <{ i32 (...)**, i32, [4 x i8] }>
%"class.std::basic_ostream" = type { i32 (...)**, %"class.std::basic_ios" }
%"class.std::basic_streambuf" = type { i32 (...)**, i8*, i8*, i8*, i8*, i8*, i8*, %"class.std::locale" }
%"class.std::ctype" = type <{ %"class.std::locale::facet.base", [4 x i8], %struct.__locale_struct*, i8, [7 x i8], i32*, i32*, i16*, i8, [256 x i8], [256 x i8], i8, [6 x i8] }>
%"class.std::locale::facet.base" = type <{ i32 (...)**, i32 }>
%struct.__locale_struct = type { [13 x %struct.__locale_data*], i16*, i32*, i32*, [13 x i8*] }
%struct.__locale_data = type opaque
%"class.std::num_put" = type { %"class.std::locale::facet.base", [4 x i8] }
%"class.std::num_get" = type { %"class.std::locale::facet.base", [4 x i8] }

@_ZStL8__ioinit = internal global %"class.std::ios_base::Init" zeroinitializer, align 1
@__dso_handle = external hidden global i8
@_ZSt3cin = external global %"class.std::basic_istream", align 8
@_ZSt4cout = external global %"class.std::basic_ostream", align 8
@llvm.global_ctors = appending global [1 x { i32, void ()*, i8* }] [{ i32, void ()*, i8* } { i32 65535, void ()* @_GLOBAL__sub_I_91.cpp, i8* null }]

declare void @_ZNSt8ios_base4InitC1Ev(%"class.std::ios_base::Init"* nonnull align 1 dereferenceable(1)) unnamed_addr #0

; Function Attrs: nounwind
declare void @_ZNSt8ios_base4InitD1Ev(%"class.std::ios_base::Init"* nonnull align 1 dereferenceable(1)) unnamed_addr #1

; Function Attrs: nofree nounwind
declare i32 @__cxa_atexit(void (i8*)*, i8*, i8*) local_unnamed_addr #2

; Function Attrs: mustprogress norecurse sspstrong uwtable
define dso_local i32 @main() local_unnamed_addr #3 {
  %1 = alloca [105 x i32], align 16
  %2 = alloca i32, align 4
  %3 = bitcast [105 x i32]* %1 to i8*
  call void @llvm.lifetime.start.p0i8(i64 420, i8* nonnull %3) #7
  %4 = bitcast i32* %2 to i8*
  call void @llvm.lifetime.start.p0i8(i64 4, i8* nonnull %4) #7
  %5 = call nonnull align 8 dereferenceable(16) %"class.std::basic_istream"* @_ZNSirsERi(%"class.std::basic_istream"* nonnull align 8 dereferenceable(16) @_ZSt3cin, i32* nonnull align 4 dereferenceable(4) %2)
  %6 = getelementptr inbounds [105 x i32], [105 x i32]* %1, i64 0, i64 0
  store i32 1, i32* %6, align 16, !tbaa !5
  %7 = getelementptr inbounds [105 x i32], [105 x i32]* %1, i64 0, i64 1
  %8 = bitcast i32* %7 to i8*
  call void @llvm.memset.p0i8.i64(i8* noundef nonnull align 4 dereferenceable(416) %8, i8 0, i64 416, i1 false)
  %9 = load i32, i32* %2, align 4, !tbaa !5
  %10 = icmp slt i32 %9, 1
  br i1 %10, label %166, label %11

11:                                               ; preds = %0
  %12 = bitcast [105 x i32]* %1 to <4 x i32>*
  %13 = bitcast [105 x i32]* %1 to <4 x i32>*
  %14 = getelementptr inbounds [105 x i32], [105 x i32]* %1, i64 0, i64 4
  %15 = bitcast i32* %14 to <4 x i32>*
  %16 = bitcast i32* %14 to <4 x i32>*
  %17 = getelementptr inbounds [105 x i32], [105 x i32]* %1, i64 0, i64 8
  %18 = bitcast i32* %17 to <4 x i32>*
  %19 = bitcast i32* %17 to <4 x i32>*
  %20 = getelementptr inbounds [105 x i32], [105 x i32]* %1, i64 0, i64 12
  %21 = bitcast i32* %20 to <4 x i32>*
  %22 = bitcast i32* %20 to <4 x i32>*
  %23 = getelementptr inbounds [105 x i32], [105 x i32]* %1, i64 0, i64 16
  %24 = bitcast i32* %23 to <4 x i32>*
  %25 = bitcast i32* %23 to <4 x i32>*
  %26 = getelementptr inbounds [105 x i32], [105 x i32]* %1, i64 0, i64 20
  %27 = bitcast i32* %26 to <4 x i32>*
  %28 = bitcast i32* %26 to <4 x i32>*
  %29 = getelementptr inbounds [105 x i32], [105 x i32]* %1, i64 0, i64 24
  %30 = bitcast i32* %29 to <4 x i32>*
  %31 = bitcast i32* %29 to <4 x i32>*
  %32 = getelementptr inbounds [105 x i32], [105 x i32]* %1, i64 0, i64 28
  %33 = bitcast i32* %32 to <4 x i32>*
  %34 = bitcast i32* %32 to <4 x i32>*
  %35 = getelementptr inbounds [105 x i32], [105 x i32]* %1, i64 0, i64 32
  %36 = bitcast i32* %35 to <4 x i32>*
  %37 = bitcast i32* %35 to <4 x i32>*
  %38 = getelementptr inbounds [105 x i32], [105 x i32]* %1, i64 0, i64 36
  %39 = bitcast i32* %38 to <4 x i32>*
  %40 = bitcast i32* %38 to <4 x i32>*
  %41 = getelementptr inbounds [105 x i32], [105 x i32]* %1, i64 0, i64 40
  %42 = bitcast i32* %41 to <4 x i32>*
  %43 = bitcast i32* %41 to <4 x i32>*
  %44 = getelementptr inbounds [105 x i32], [105 x i32]* %1, i64 0, i64 44
  %45 = bitcast i32* %44 to <4 x i32>*
  %46 = bitcast i32* %44 to <4 x i32>*
  %47 = getelementptr inbounds [105 x i32], [105 x i32]* %1, i64 0, i64 48
  %48 = bitcast i32* %47 to <4 x i32>*
  %49 = bitcast i32* %47 to <4 x i32>*
  %50 = getelementptr inbounds [105 x i32], [105 x i32]* %1, i64 0, i64 52
  %51 = bitcast i32* %50 to <4 x i32>*
  %52 = bitcast i32* %50 to <4 x i32>*
  %53 = getelementptr inbounds [105 x i32], [105 x i32]* %1, i64 0, i64 56
  %54 = bitcast i32* %53 to <4 x i32>*
  %55 = bitcast i32* %53 to <4 x i32>*
  %56 = getelementptr inbounds [105 x i32], [105 x i32]* %1, i64 0, i64 60
  %57 = bitcast i32* %56 to <4 x i32>*
  %58 = bitcast i32* %56 to <4 x i32>*
  %59 = getelementptr inbounds [105 x i32], [105 x i32]* %1, i64 0, i64 64
  %60 = bitcast i32* %59 to <4 x i32>*
  %61 = bitcast i32* %59 to <4 x i32>*
  %62 = getelementptr inbounds [105 x i32], [105 x i32]* %1, i64 0, i64 68
  %63 = bitcast i32* %62 to <4 x i32>*
  %64 = bitcast i32* %62 to <4 x i32>*
  %65 = getelementptr inbounds [105 x i32], [105 x i32]* %1, i64 0, i64 72
  %66 = bitcast i32* %65 to <4 x i32>*
  %67 = bitcast i32* %65 to <4 x i32>*
  %68 = getelementptr inbounds [105 x i32], [105 x i32]* %1, i64 0, i64 76
  %69 = bitcast i32* %68 to <4 x i32>*
  %70 = bitcast i32* %68 to <4 x i32>*
  %71 = getelementptr inbounds [105 x i32], [105 x i32]* %1, i64 0, i64 80
  %72 = bitcast i32* %71 to <4 x i32>*
  %73 = bitcast i32* %71 to <4 x i32>*
  %74 = getelementptr inbounds [105 x i32], [105 x i32]* %1, i64 0, i64 84
  %75 = bitcast i32* %74 to <4 x i32>*
  %76 = bitcast i32* %74 to <4 x i32>*
  %77 = getelementptr inbounds [105 x i32], [105 x i32]* %1, i64 0, i64 88
  %78 = bitcast i32* %77 to <4 x i32>*
  %79 = bitcast i32* %77 to <4 x i32>*
  %80 = getelementptr inbounds [105 x i32], [105 x i32]* %1, i64 0, i64 92
  %81 = bitcast i32* %80 to <4 x i32>*
  %82 = bitcast i32* %80 to <4 x i32>*
  %83 = getelementptr inbounds [105 x i32], [105 x i32]* %1, i64 0, i64 96
  %84 = bitcast i32* %83 to <4 x i32>*
  %85 = bitcast i32* %83 to <4 x i32>*
  %86 = getelementptr inbounds [105 x i32], [105 x i32]* %1, i64 0, i64 100
  %87 = bitcast i32* %86 to <4 x i32>*
  %88 = bitcast i32* %86 to <4 x i32>*
  %89 = getelementptr inbounds [105 x i32], [105 x i32]* %1, i64 0, i64 104
  br label %90

90:                                               ; preds = %11, %163
  %91 = phi i32 [ %164, %163 ], [ 1, %11 ]
  %92 = load <4 x i32>, <4 x i32>* %12, align 16, !tbaa !5
  %93 = shl nsw <4 x i32> %92, <i32 1, i32 1, i32 1, i32 1>
  store <4 x i32> %93, <4 x i32>* %13, align 16, !tbaa !5
  %94 = load <4 x i32>, <4 x i32>* %15, align 16, !tbaa !5
  %95 = shl nsw <4 x i32> %94, <i32 1, i32 1, i32 1, i32 1>
  store <4 x i32> %95, <4 x i32>* %16, align 16, !tbaa !5
  %96 = load <4 x i32>, <4 x i32>* %18, align 16, !tbaa !5
  %97 = shl nsw <4 x i32> %96, <i32 1, i32 1, i32 1, i32 1>
  store <4 x i32> %97, <4 x i32>* %19, align 16, !tbaa !5
  %98 = load <4 x i32>, <4 x i32>* %21, align 16, !tbaa !5
  %99 = shl nsw <4 x i32> %98, <i32 1, i32 1, i32 1, i32 1>
  store <4 x i32> %99, <4 x i32>* %22, align 16, !tbaa !5
  %100 = load <4 x i32>, <4 x i32>* %24, align 16, !tbaa !5
  %101 = shl nsw <4 x i32> %100, <i32 1, i32 1, i32 1, i32 1>
  store <4 x i32> %101, <4 x i32>* %25, align 16, !tbaa !5
  %102 = load <4 x i32>, <4 x i32>* %27, align 16, !tbaa !5
  %103 = shl nsw <4 x i32> %102, <i32 1, i32 1, i32 1, i32 1>
  store <4 x i32> %103, <4 x i32>* %28, align 16, !tbaa !5
  %104 = load <4 x i32>, <4 x i32>* %30, align 16, !tbaa !5
  %105 = shl nsw <4 x i32> %104, <i32 1, i32 1, i32 1, i32 1>
  store <4 x i32> %105, <4 x i32>* %31, align 16, !tbaa !5
  %106 = load <4 x i32>, <4 x i32>* %33, align 16, !tbaa !5
  %107 = shl nsw <4 x i32> %106, <i32 1, i32 1, i32 1, i32 1>
  store <4 x i32> %107, <4 x i32>* %34, align 16, !tbaa !5
  %108 = load <4 x i32>, <4 x i32>* %36, align 16, !tbaa !5
  %109 = shl nsw <4 x i32> %108, <i32 1, i32 1, i32 1, i32 1>
  store <4 x i32> %109, <4 x i32>* %37, align 16, !tbaa !5
  %110 = load <4 x i32>, <4 x i32>* %39, align 16, !tbaa !5
  %111 = shl nsw <4 x i32> %110, <i32 1, i32 1, i32 1, i32 1>
  store <4 x i32> %111, <4 x i32>* %40, align 16, !tbaa !5
  %112 = load <4 x i32>, <4 x i32>* %42, align 16, !tbaa !5
  %113 = shl nsw <4 x i32> %112, <i32 1, i32 1, i32 1, i32 1>
  store <4 x i32> %113, <4 x i32>* %43, align 16, !tbaa !5
  %114 = load <4 x i32>, <4 x i32>* %45, align 16, !tbaa !5
  %115 = shl nsw <4 x i32> %114, <i32 1, i32 1, i32 1, i32 1>
  store <4 x i32> %115, <4 x i32>* %46, align 16, !tbaa !5
  %116 = load <4 x i32>, <4 x i32>* %48, align 16, !tbaa !5
  %117 = shl nsw <4 x i32> %116, <i32 1, i32 1, i32 1, i32 1>
  store <4 x i32> %117, <4 x i32>* %49, align 16, !tbaa !5
  %118 = load <4 x i32>, <4 x i32>* %51, align 16, !tbaa !5
  %119 = shl nsw <4 x i32> %118, <i32 1, i32 1, i32 1, i32 1>
  store <4 x i32> %119, <4 x i32>* %52, align 16, !tbaa !5
  %120 = load <4 x i32>, <4 x i32>* %54, align 16, !tbaa !5
  %121 = shl nsw <4 x i32> %120, <i32 1, i32 1, i32 1, i32 1>
  store <4 x i32> %121, <4 x i32>* %55, align 16, !tbaa !5
  %122 = load <4 x i32>, <4 x i32>* %57, align 16, !tbaa !5
  %123 = shl nsw <4 x i32> %122, <i32 1, i32 1, i32 1, i32 1>
  store <4 x i32> %123, <4 x i32>* %58, align 16, !tbaa !5
  %124 = load <4 x i32>, <4 x i32>* %60, align 16, !tbaa !5
  %125 = shl nsw <4 x i32> %124, <i32 1, i32 1, i32 1, i32 1>
  store <4 x i32> %125, <4 x i32>* %61, align 16, !tbaa !5
  %126 = load <4 x i32>, <4 x i32>* %63, align 16, !tbaa !5
  %127 = shl nsw <4 x i32> %126, <i32 1, i32 1, i32 1, i32 1>
  store <4 x i32> %127, <4 x i32>* %64, align 16, !tbaa !5
  %128 = load <4 x i32>, <4 x i32>* %66, align 16, !tbaa !5
  %129 = shl nsw <4 x i32> %128, <i32 1, i32 1, i32 1, i32 1>
  store <4 x i32> %129, <4 x i32>* %67, align 16, !tbaa !5
  %130 = load <4 x i32>, <4 x i32>* %69, align 16, !tbaa !5
  %131 = shl nsw <4 x i32> %130, <i32 1, i32 1, i32 1, i32 1>
  store <4 x i32> %131, <4 x i32>* %70, align 16, !tbaa !5
  %132 = load <4 x i32>, <4 x i32>* %72, align 16, !tbaa !5
  %133 = shl nsw <4 x i32> %132, <i32 1, i32 1, i32 1, i32 1>
  store <4 x i32> %133, <4 x i32>* %73, align 16, !tbaa !5
  %134 = load <4 x i32>, <4 x i32>* %75, align 16, !tbaa !5
  %135 = shl nsw <4 x i32> %134, <i32 1, i32 1, i32 1, i32 1>
  store <4 x i32> %135, <4 x i32>* %76, align 16, !tbaa !5
  %136 = load <4 x i32>, <4 x i32>* %78, align 16, !tbaa !5
  %137 = shl nsw <4 x i32> %136, <i32 1, i32 1, i32 1, i32 1>
  store <4 x i32> %137, <4 x i32>* %79, align 16, !tbaa !5
  %138 = load <4 x i32>, <4 x i32>* %81, align 16, !tbaa !5
  %139 = shl nsw <4 x i32> %138, <i32 1, i32 1, i32 1, i32 1>
  store <4 x i32> %139, <4 x i32>* %82, align 16, !tbaa !5
  %140 = load <4 x i32>, <4 x i32>* %84, align 16, !tbaa !5
  %141 = shl nsw <4 x i32> %140, <i32 1, i32 1, i32 1, i32 1>
  store <4 x i32> %141, <4 x i32>* %85, align 16, !tbaa !5
  %142 = load <4 x i32>, <4 x i32>* %87, align 16, !tbaa !5
  %143 = shl nsw <4 x i32> %142, <i32 1, i32 1, i32 1, i32 1>
  store <4 x i32> %143, <4 x i32>* %88, align 16, !tbaa !5
  %144 = load i32, i32* %89, align 16, !tbaa !5
  %145 = shl nsw i32 %144, 1
  store i32 %145, i32* %89, align 16, !tbaa !5
  br label %146

146:                                              ; preds = %90, %160
  %147 = phi i64 [ %161, %160 ], [ 0, %90 ]
  %148 = getelementptr inbounds [105 x i32], [105 x i32]* %1, i64 0, i64 %147
  %149 = load i32, i32* %148, align 4, !tbaa !5
  %150 = icmp sgt i32 %149, 9
  br i1 %150, label %153, label %151

151:                                              ; preds = %146
  %152 = add nuw nsw i64 %147, 1
  br label %160

153:                                              ; preds = %146
  %154 = udiv i32 %149, 10
  %155 = add nuw nsw i64 %147, 1
  %156 = getelementptr inbounds [105 x i32], [105 x i32]* %1, i64 0, i64 %155
  %157 = load i32, i32* %156, align 4, !tbaa !5
  %158 = add nsw i32 %157, %154
  store i32 %158, i32* %156, align 4, !tbaa !5
  %159 = urem i32 %149, 10
  store i32 %159, i32* %148, align 4, !tbaa !5
  br label %160

160:                                              ; preds = %151, %153
  %161 = phi i64 [ %152, %151 ], [ %155, %153 ]
  %162 = icmp eq i64 %161, 105
  br i1 %162, label %163, label %146, !llvm.loop !9

163:                                              ; preds = %160
  %164 = add nuw i32 %91, 1
  %165 = icmp eq i32 %91, %9
  br i1 %165, label %166, label %90, !llvm.loop !11

166:                                              ; preds = %163, %0
  br label %167

167:                                              ; preds = %166, %167
  %168 = phi i64 [ %172, %167 ], [ 104, %166 ]
  %169 = getelementptr inbounds [105 x i32], [105 x i32]* %1, i64 0, i64 %168
  %170 = load i32, i32* %169, align 4, !tbaa !5
  %171 = icmp eq i32 %170, 0
  %172 = add i64 %168, -1
  br i1 %171, label %167, label %173, !llvm.loop !12

173:                                              ; preds = %167
  %174 = trunc i64 %168 to i32
  %175 = icmp sgt i32 %174, -1
  br i1 %175, label %176, label %185

176:                                              ; preds = %173
  %177 = and i64 %168, 4294967295
  br label %178

178:                                              ; preds = %176, %178
  %179 = phi i64 [ %177, %176 ], [ %184, %178 ]
  %180 = getelementptr inbounds [105 x i32], [105 x i32]* %1, i64 0, i64 %179
  %181 = load i32, i32* %180, align 4, !tbaa !5
  %182 = call nonnull align 8 dereferenceable(8) %"class.std::basic_ostream"* @_ZNSolsEi(%"class.std::basic_ostream"* nonnull align 8 dereferenceable(8) @_ZSt4cout, i32 %181)
  %183 = icmp sgt i64 %179, 0
  %184 = add nsw i64 %179, -1
  br i1 %183, label %178, label %185, !llvm.loop !13

185:                                              ; preds = %178, %173
  call void @llvm.lifetime.end.p0i8(i64 4, i8* nonnull %4) #7
  call void @llvm.lifetime.end.p0i8(i64 420, i8* nonnull %3) #7
  ret i32 0
}

; Function Attrs: argmemonly mustprogress nofree nosync nounwind willreturn
declare void @llvm.lifetime.start.p0i8(i64 immarg, i8* nocapture) #4

declare nonnull align 8 dereferenceable(16) %"class.std::basic_istream"* @_ZNSirsERi(%"class.std::basic_istream"* nonnull align 8 dereferenceable(16), i32* nonnull align 4 dereferenceable(4)) local_unnamed_addr #0

declare nonnull align 8 dereferenceable(8) %"class.std::basic_ostream"* @_ZNSolsEi(%"class.std::basic_ostream"* nonnull align 8 dereferenceable(8), i32) local_unnamed_addr #0

; Function Attrs: argmemonly mustprogress nofree nosync nounwind willreturn
declare void @llvm.lifetime.end.p0i8(i64 immarg, i8* nocapture) #4

; Function Attrs: sspstrong uwtable
define internal void @_GLOBAL__sub_I_91.cpp() #5 section ".text.startup" {
  tail call void @_ZNSt8ios_base4InitC1Ev(%"class.std::ios_base::Init"* nonnull align 1 dereferenceable(1) @_ZStL8__ioinit)
  %1 = tail call i32 @__cxa_atexit(void (i8*)* bitcast (void (%"class.std::ios_base::Init"*)* @_ZNSt8ios_base4InitD1Ev to void (i8*)*), i8* getelementptr inbounds (%"class.std::ios_base::Init", %"class.std::ios_base::Init"* @_ZStL8__ioinit, i64 0, i32 0), i8* nonnull @__dso_handle) #7
  ret void
}

; Function Attrs: argmemonly nofree nounwind willreturn writeonly
declare void @llvm.memset.p0i8.i64(i8* nocapture writeonly, i8, i64, i1 immarg) #6


!llvm.module.flags = !{!0, !1, !2, !3}
!llvm.ident = !{!4}

!0 = !{i32 1, !"wchar_size", i32 4}
!1 = !{i32 7, !"PIC Level", i32 2}
!2 = !{i32 7, !"PIE Level", i32 2}
!3 = !{i32 7, !"uwtable", i32 1}
!4 = !{!"clang version 13.0.0"}
!5 = !{!6, !6, i64 0}
!6 = !{!"int", !7, i64 0}
!7 = !{!"omnipotent char", !8, i64 0}
!8 = !{!"Simple C++ TBAA"}
!9 = distinct !{!9, !10}
!10 = !{!"llvm.loop.mustprogress"}
!11 = distinct !{!11, !10}
!12 = distinct !{!12, !10}
!13 = distinct !{!13, !10}
